target datalayout = "e-m:e-p270:32:32-p271:32:32-p272:64:64-i64:64-i128:128-f80:128-n8:16:32:64-S128"
target triple = "x86_64-unknown-linux-gnu"

%class.btSimpleBroadphase = type { %class.btBroadphaseInterface, i32, i32, i32, ptr, ptr, i32, ptr, i8, i32 }
%class.btBroadphaseInterface = type { ptr }
%struct.btSimpleBroadphaseProxy = type { %struct.btBroadphaseProxy.base, i32 }
%struct.btBroadphaseProxy.base = type <{ ptr, i32, i32, i32, %class.btVector3, %class.btVector3 }>
%class.btVector3 = type { [4 x float] }
%struct.btBroadphaseProxy = type <{ ptr, i32, i32, i32, %class.btVector3, %class.btVector3, [4 x i8] }>

; Function Attrs: mustprogress nounwind uwtable
define linkonce_odr dso_local void @_ZN9btVector3C2Ev(ptr noundef nonnull align 4 dereferenceable(16) %this) unnamed_addr #1 comdat align 2 {
entry:
  %this.addr = alloca ptr, align 8
  store ptr %this, ptr %this.addr, align 8
  ret void
}

; Function Attrs: mustprogress uwtable
define linkonce_odr dso_local void @_ZN17btBroadphaseProxyC2Ev(ptr noundef nonnull align 8 dereferenceable(52) %this) unnamed_addr #2 comdat align 2 {
entry:
  %this.addr = alloca ptr, align 8
  store ptr %this, ptr %this.addr, align 8
  %this1 = load ptr, ptr %this.addr, align 8
  %m_clientObject = getelementptr inbounds %struct.btBroadphaseProxy, ptr %this1, i32 0, i32 0
  store ptr null, ptr %m_clientObject, align 8
  %m_aabbMin = getelementptr inbounds %struct.btBroadphaseProxy, ptr %this1, i32 0, i32 4
  call void @_ZN9btVector3C2Ev(ptr noundef nonnull align 4 dereferenceable(16) %m_aabbMin)
  %m_aabbMax = getelementptr inbounds %struct.btBroadphaseProxy, ptr %this1, i32 0, i32 5
  call void @_ZN9btVector3C2Ev(ptr noundef nonnull align 4 dereferenceable(16) %m_aabbMax)
  ret void
}

; Function Attrs: mustprogress nounwind uwtable
define linkonce_odr dso_local void @_ZN21btBroadphaseInterfaceD2Ev(ptr noundef nonnull align 8 dereferenceable(8) %this) unnamed_addr #1 comdat align 2 {
entry:
  %this.addr = alloca ptr, align 8
  store ptr %this, ptr %this.addr, align 8
  ret void
}

; Function Attrs: mustprogress nounwind uwtable
define linkonce_odr dso_local void @_ZN17btBroadphaseProxydaEPvS0_(ptr noundef %0, ptr noundef %1) #1 comdat align 2 {
entry:
  %.addr = alloca ptr, align 8
  %.addr1 = alloca ptr, align 8
  store ptr %0, ptr %.addr, align 8
  store ptr %1, ptr %.addr1, align 8
  ret void
}

; Function Attrs: mustprogress nounwind uwtable
define linkonce_odr dso_local void @_ZN23btSimpleBroadphaseProxy11SetNextFreeEi(ptr noundef nonnull align 8 dereferenceable(56) %this, i32 noundef %next) #1 comdat align 2 {
entry:
  %this.addr = alloca ptr, align 8
  %next.addr = alloca i32, align 4
  store ptr %this, ptr %this.addr, align 8
  store i32 %next, ptr %next.addr, align 4
  %this1 = load ptr, ptr %this.addr, align 8
  %0 = load i32, ptr %next.addr, align 4
  %m_nextFree = getelementptr inbounds %struct.btSimpleBroadphaseProxy, ptr %this1, i32 0, i32 1
  store i32 %0, ptr %m_nextFree, align 4
  ret void
}

; Function Attrs: mustprogress uwtable
define linkonce_odr dso_local void @_ZN23btSimpleBroadphaseProxyC2Ev(ptr noundef nonnull align 8 dereferenceable(56) %this) unnamed_addr #2 comdat align 2 {
entry:
  %this.addr = alloca ptr, align 8
  store ptr %this, ptr %this.addr, align 8
  %this1 = load ptr, ptr %this.addr, align 8
  call void @_ZN17btBroadphaseProxyC2Ev(ptr noundef nonnull align 8 dereferenceable(52) %this1)
  ret void
}

; Function Attrs: mustprogress nounwind uwtable
define linkonce_odr dso_local noundef ptr @_ZN17btBroadphaseProxynaEmPv(i64 noundef %0, ptr noundef %ptr) #1 comdat align 2 {
entry:
  %.addr = alloca i64, align 8
  %ptr.addr = alloca ptr, align 8
  store i64 %0, ptr %.addr, align 8
  store ptr %ptr, ptr %ptr.addr, align 8
  %1 = load ptr, ptr %ptr.addr, align 8
  ret ptr %1
}

; Function Attrs: mustprogress nounwind uwtable
define linkonce_odr dso_local void @_ZN28btHashedOverlappingPairCachedlEPvS0_(ptr noundef %0, ptr noundef %1) #1 comdat align 2 {
entry:
  %.addr = alloca ptr, align 8
  %.addr1 = alloca ptr, align 8
  store ptr %0, ptr %.addr, align 8
  store ptr %1, ptr %.addr1, align 8
  ret void
}

; Function Attrs: mustprogress nounwind uwtable
define linkonce_odr dso_local noundef ptr @_ZN28btHashedOverlappingPairCachenwEmPv(i64 noundef %0, ptr noundef %ptr) #1 comdat align 2 {
entry:
  %.addr = alloca i64, align 8
  %ptr.addr = alloca ptr, align 8
  store i64 %0, ptr %.addr, align 8
  store ptr %ptr, ptr %ptr.addr, align 8
  %1 = load ptr, ptr %ptr.addr, align 8
  ret ptr %1
}

; Function Attrs: mustprogress nounwind uwtable
define linkonce_odr dso_local void @_ZN21btBroadphaseInterfaceC2Ev(ptr noundef nonnull align 8 dereferenceable(8) %this) unnamed_addr #1 comdat align 2 {
entry:
  %this.addr = alloca ptr, align 8
  store ptr %this, ptr %this.addr, align 8
  %this1 = load ptr, ptr %this.addr, align 8
  store ptr getelementptr inbounds ({ [16 x ptr] }, ptr @_ZTV21btBroadphaseInterface, i32 0, i32 0, i32 2), ptr %this1, align 8
  ret void
}

; Function Attrs: mustprogress uwtable
define dso_local void @_ZN18btSimpleBroadphaseC2EiP22btOverlappingPairCache(ptr noundef nonnull align 8 dereferenceable(64) %this, i32 noundef %maxProxies, ptr noundef %overlappingPairCache) unnamed_addr #2 align 2 personality ptr @__gxx_personality_v0 {
entry:
  %this.addr = alloca ptr, align 8
  %maxProxies.addr = alloca i32, align 4
  %overlappingPairCache.addr = alloca ptr, align 8
  %mem = alloca ptr, align 8
  %exn.slot = alloca ptr, align 8
  %ehselector.slot = alloca i32, align 4
  %i = alloca i32, align 4
  store ptr %this, ptr %this.addr, align 8
  store i32 %maxProxies, ptr %maxProxies.addr, align 4
  store ptr %overlappingPairCache, ptr %overlappingPairCache.addr, align 8
  %this1 = load ptr, ptr %this.addr, align 8
  call void @_ZN21btBroadphaseInterfaceC2Ev(ptr noundef nonnull align 8 dereferenceable(8) %this1) #9
  store ptr getelementptr inbounds ({ [16 x ptr] }, ptr @_ZTV18btSimpleBroadphase, i32 0, i32 0, i32 2), ptr %this1, align 8
  %m_pairCache = getelementptr inbounds %class.btSimpleBroadphase, ptr %this1, i32 0, i32 7
  %0 = load ptr, ptr %overlappingPairCache.addr, align 8
  store ptr %0, ptr %m_pairCache, align 8
  %m_ownsPairCache = getelementptr inbounds %class.btSimpleBroadphase, ptr %this1, i32 0, i32 8
  store i8 0, ptr %m_ownsPairCache, align 8
  %m_invalidPair = getelementptr inbounds %class.btSimpleBroadphase, ptr %this1, i32 0, i32 9
  store i32 0, ptr %m_invalidPair, align 4
  %1 = load ptr, ptr %overlappingPairCache.addr, align 8
  %tobool = icmp ne ptr %1, null
  br i1 %tobool, label %if.end, label %if.then

if.then:                                          ; preds = %entry
  %call = invoke noundef ptr @_Z22btAlignedAllocInternalmi(i64 noundef 120, i32 noundef 16)
          to label %invoke.cont unwind label %lpad

invoke.cont:                                      ; preds = %if.then
  store ptr %call, ptr %mem, align 8
  %2 = load ptr, ptr %mem, align 8
  %call3 = invoke noundef ptr @_ZN28btHashedOverlappingPairCachenwEmPv(i64 noundef 120, ptr noundef %2)
          to label %invoke.cont2 unwind label %lpad

invoke.cont2:                                     ; preds = %invoke.cont
  invoke void @_ZN28btHashedOverlappingPairCacheC1Ev(ptr noundef nonnull align 8 dereferenceable(120) %call3)
          to label %invoke.cont5 unwind label %lpad4

invoke.cont5:                                     ; preds = %invoke.cont2
  %m_pairCache6 = getelementptr inbounds %class.btSimpleBroadphase, ptr %this1, i32 0, i32 7
  store ptr %call3, ptr %m_pairCache6, align 8
  %m_ownsPairCache7 = getelementptr inbounds %class.btSimpleBroadphase, ptr %this1, i32 0, i32 8
  store i8 1, ptr %m_ownsPairCache7, align 8
  br label %if.end

lpad:                                             ; preds = %for.end, %for.body, %invoke.cont8, %if.end, %invoke.cont, %if.then
  %3 = landingpad { ptr, i32 }
          cleanup
  %4 = extractvalue { ptr, i32 } %3, 0
  store ptr %4, ptr %exn.slot, align 8
  %5 = extractvalue { ptr, i32 } %3, 1
  store i32 %5, ptr %ehselector.slot, align 4
  br label %ehcleanup

lpad4:                                            ; preds = %invoke.cont2
  %6 = landingpad { ptr, i32 }
          cleanup
  %7 = extractvalue { ptr, i32 } %6, 0
  store ptr %7, ptr %exn.slot, align 8
  %8 = extractvalue { ptr, i32 } %6, 1
  store i32 %8, ptr %ehselector.slot, align 4
  call void @_ZN28btHashedOverlappingPairCachedlEPvS0_(ptr noundef %call3, ptr noundef %2) #9
  br label %ehcleanup

if.end:                                           ; preds = %invoke.cont5, %entry
  %9 = load i32, ptr %maxProxies.addr, align 4
  %conv = sext i32 %9 to i64
  %mul = mul i64 56, %conv
  %call9 = invoke noundef ptr @_Z22btAlignedAllocInternalmi(i64 noundef %mul, i32 noundef 16)
          to label %invoke.cont8 unwind label %lpad

invoke.cont8:                                     ; preds = %if.end
  %m_pHandlesRawPtr = getelementptr inbounds %class.btSimpleBroadphase, ptr %this1, i32 0, i32 5
  store ptr %call9, ptr %m_pHandlesRawPtr, align 8
  %10 = load i32, ptr %maxProxies.addr, align 4
  %conv10 = sext i32 %10 to i64
  %11 = call { i64, i1 } @llvm.umul.with.overflow.i64(i64 %conv10, i64 56)
  %12 = extractvalue { i64, i1 } %11, 1
  %13 = extractvalue { i64, i1 } %11, 0
  %14 = select i1 %12, i64 -1, i64 %13
  %m_pHandlesRawPtr11 = getelementptr inbounds %class.btSimpleBroadphase, ptr %this1, i32 0, i32 5
  %15 = load ptr, ptr %m_pHandlesRawPtr11, align 8
  %call13 = invoke noundef ptr @_ZN17btBroadphaseProxynaEmPv(i64 noundef %14, ptr noundef %15)
          to label %invoke.cont12 unwind label %lpad

invoke.cont12:                                    ; preds = %invoke.cont8
  %isempty = icmp eq i64 %conv10, 0
  br i1 %isempty, label %arrayctor.cont, label %new.ctorloop

new.ctorloop:                                     ; preds = %invoke.cont12
  %arrayctor.end = getelementptr inbounds %struct.btSimpleBroadphaseProxy, ptr %call13, i64 %conv10
  br label %arrayctor.loop

arrayctor.loop:                                   ; preds = %invoke.cont15, %new.ctorloop
  %arrayctor.cur = phi ptr [ %call13, %new.ctorloop ], [ %arrayctor.next, %invoke.cont15 ]
  invoke void @_ZN23btSimpleBroadphaseProxyC2Ev(ptr noundef nonnull align 8 dereferenceable(56) %arrayctor.cur)
          to label %invoke.cont15 unwind label %lpad14

invoke.cont15:                                    ; preds = %arrayctor.loop
  %arrayctor.next = getelementptr inbounds %struct.btSimpleBroadphaseProxy, ptr %arrayctor.cur, i64 1
  %arrayctor.done = icmp eq ptr %arrayctor.next, %arrayctor.end
  br i1 %arrayctor.done, label %arrayctor.cont, label %arrayctor.loop

arrayctor.cont:                                   ; preds = %invoke.cont15, %invoke.cont12
  %m_pHandles = getelementptr inbounds %class.btSimpleBroadphase, ptr %this1, i32 0, i32 4
  store ptr %call13, ptr %m_pHandles, align 8
  %16 = load i32, ptr %maxProxies.addr, align 4
  %m_maxHandles = getelementptr inbounds %class.btSimpleBroadphase, ptr %this1, i32 0, i32 2
  store i32 %16, ptr %m_maxHandles, align 4
  %m_numHandles = getelementptr inbounds %class.btSimpleBroadphase, ptr %this1, i32 0, i32 1
  store i32 0, ptr %m_numHandles, align 8
  %m_firstFreeHandle = getelementptr inbounds %class.btSimpleBroadphase, ptr %this1, i32 0, i32 6
  store i32 0, ptr %m_firstFreeHandle, align 8
  %m_LastHandleIndex = getelementptr inbounds %class.btSimpleBroadphase, ptr %this1, i32 0, i32 3
  store i32 -1, ptr %m_LastHandleIndex, align 8
  %m_firstFreeHandle16 = getelementptr inbounds %class.btSimpleBroadphase, ptr %this1, i32 0, i32 6
  %17 = load i32, ptr %m_firstFreeHandle16, align 8
  store i32 %17, ptr %i, align 4
  br label %for.cond

for.cond:                                         ; preds = %for.inc, %arrayctor.cont
  %18 = load i32, ptr %i, align 4
  %19 = load i32, ptr %maxProxies.addr, align 4
  %cmp = icmp slt i32 %18, %19
  br i1 %cmp, label %for.body, label %for.end

for.body:                                         ; preds = %for.cond
  %m_pHandles17 = getelementptr inbounds %class.btSimpleBroadphase, ptr %this1, i32 0, i32 4
  %20 = load ptr, ptr %m_pHandles17, align 8
  %21 = load i32, ptr %i, align 4
  %idxprom = sext i32 %21 to i64
  %arrayidx = getelementptr inbounds %struct.btSimpleBroadphaseProxy, ptr %20, i64 %idxprom
  %22 = load i32, ptr %i, align 4
  %add = add nsw i32 %22, 1
  invoke void @_ZN23btSimpleBroadphaseProxy11SetNextFreeEi(ptr noundef nonnull align 8 dereferenceable(56) %arrayidx, i32 noundef %add)
          to label %invoke.cont18 unwind label %lpad

invoke.cont18:                                    ; preds = %for.body
  %23 = load i32, ptr %i, align 4
  %add19 = add nsw i32 %23, 2
  %m_pHandles20 = getelementptr inbounds %class.btSimpleBroadphase, ptr %this1, i32 0, i32 4
  %24 = load ptr, ptr %m_pHandles20, align 8
  %25 = load i32, ptr %i, align 4
  %idxprom21 = sext i32 %25 to i64
  %arrayidx22 = getelementptr inbounds %struct.btSimpleBroadphaseProxy, ptr %24, i64 %idxprom21
  %m_uniqueId = getelementptr inbounds %struct.btBroadphaseProxy, ptr %arrayidx22, i32 0, i32 3
  store i32 %add19, ptr %m_uniqueId, align 8
  br label %for.inc

for.inc:                                          ; preds = %invoke.cont18
  %26 = load i32, ptr %i, align 4
  %inc = add nsw i32 %26, 1
  store i32 %inc, ptr %i, align 4
  br label %for.cond, !llvm.loop !8

lpad14:                                           ; preds = %arrayctor.loop
  %27 = landingpad { ptr, i32 }
          cleanup
  %28 = extractvalue { ptr, i32 } %27, 0
  store ptr %28, ptr %exn.slot, align 8
  %29 = extractvalue { ptr, i32 } %27, 1
  store i32 %29, ptr %ehselector.slot, align 4
  call void @_ZN17btBroadphaseProxydaEPvS0_(ptr noundef %call13, ptr noundef %15) #9
  br label %ehcleanup

for.end:                                          ; preds = %for.cond
  %m_pHandles23 = getelementptr inbounds %class.btSimpleBroadphase, ptr %this1, i32 0, i32 4
  %30 = load ptr, ptr %m_pHandles23, align 8
  %31 = load i32, ptr %maxProxies.addr, align 4
  %sub = sub nsw i32 %31, 1
  %idxprom24 = sext i32 %sub to i64
  %arrayidx25 = getelementptr inbounds %struct.btSimpleBroadphaseProxy, ptr %30, i64 %idxprom24
  invoke void @_ZN23btSimpleBroadphaseProxy11SetNextFreeEi(ptr noundef nonnull align 8 dereferenceable(56) %arrayidx25, i32 noundef 0)
          to label %invoke.cont26 unwind label %lpad

invoke.cont26:                                    ; preds = %for.end
  ret void

ehcleanup:                                        ; preds = %lpad14, %lpad4, %lpad
  call void @_ZN21btBroadphaseInterfaceD2Ev(ptr noundef nonnull align 8 dereferenceable(8) %this1) #9
  br label %eh.resume

eh.resume:                                        ; preds = %ehcleanup
  %exn = load ptr, ptr %exn.slot, align 8
  %sel = load i32, ptr %ehselector.slot, align 4
  %lpad.val = insertvalue { ptr, i32 } poison, ptr %exn, 0
  %lpad.val27 = insertvalue { ptr, i32 } %lpad.val, i32 %sel, 1
  resume { ptr, i32 } %lpad.val27
}