; Function Attrs: mustprogress uwtable
define dso_local void @_ZN18btSimpleBroadphaseC2EiP22btOverlappingPairCache(ptr nocapture noundef nonnull align 8 dereferenceable(64) %this, i32 noundef %maxProxies, ptr noundef %overlappingPairCache) unnamed_addr #1 align 2 personality ptr @__gxx_personality_v0 {
entry:
  store ptr getelementptr inbounds ({ [16 x ptr] }, ptr @_ZTV18btSimpleBroadphase, i64 0, i32 0, i64 2), ptr %this, align 8
  %m_pairCache = getelementptr inbounds i8, ptr %this, i64 48
  store ptr %overlappingPairCache, ptr %m_pairCache, align 8
  %m_ownsPairCache = getelementptr inbounds i8, ptr %this, i64 56
  store i8 0, ptr %m_ownsPairCache, align 8
  %m_invalidPair = getelementptr inbounds i8, ptr %this, i64 60
  store i32 0, ptr %m_invalidPair, align 4
  %tobool.not = icmp eq ptr %overlappingPairCache, null
  br i1 %tobool.not, label %if.then, label %if.end

if.then:                                          ; preds = %entry
  %call = tail call noundef ptr @_Z22btAlignedAllocInternalmi(i64 noundef 120, i32 noundef 16)
  tail call void @_ZN28btHashedOverlappingPairCacheC1Ev(ptr noundef nonnull align 8 dereferenceable(120) %call)
  store ptr %call, ptr %m_pairCache, align 8
  store i8 1, ptr %m_ownsPairCache, align 8
  br label %if.end

if.end:                                           ; preds = %if.then, %entry
  %conv = sext i32 %maxProxies to i64
  %mul = mul nsw i64 %conv, 56
  %call9 = tail call noundef ptr @_Z22btAlignedAllocInternalmi(i64 noundef %mul, i32 noundef 16)
  %m_pHandlesRawPtr = getelementptr inbounds i8, ptr %this, i64 32
  store ptr %call9, ptr %m_pHandlesRawPtr, align 8
  %isempty = icmp eq i32 %maxProxies, 0
  br i1 %isempty, label %arrayctor.cont.thread, label %new.ctorloop

arrayctor.cont.thread:                            ; preds = %if.end
  %m_pHandles17 = getelementptr inbounds i8, ptr %this, i64 24
  store ptr %call9, ptr %m_pHandles17, align 8
  %m_maxHandles18 = getelementptr inbounds i8, ptr %this, i64 12
  store i32 %maxProxies, ptr %m_maxHandles18, align 4
  %m_numHandles19 = getelementptr inbounds i8, ptr %this, i64 8
  store i32 0, ptr %m_numHandles19, align 8
  %m_firstFreeHandle20 = getelementptr inbounds i8, ptr %this, i64 40
  store i32 0, ptr %m_firstFreeHandle20, align 8
  %m_LastHandleIndex21 = getelementptr inbounds i8, ptr %this, i64 16
  store i32 -1, ptr %m_LastHandleIndex21, align 8
  br label %for.end

new.ctorloop:                                     ; preds = %if.end
  %arrayctor.end = getelementptr inbounds %struct.btSimpleBroadphaseProxy, ptr %call9, i64 %conv
  br label %invoke.cont15

invoke.cont15:                                    ; preds = %new.ctorloop, %invoke.cont15
  %arrayctor.cur = phi ptr [ %call9, %new.ctorloop ], [ %arrayctor.next, %invoke.cont15 ]
  store ptr null, ptr %arrayctor.cur, align 8
  %arrayctor.next = getelementptr inbounds i8, ptr %arrayctor.cur, i64 56
  %arrayctor.done = icmp eq ptr %arrayctor.next, %arrayctor.end
  br i1 %arrayctor.done, label %arrayctor.cont, label %invoke.cont15

arrayctor.cont:                                   ; preds = %invoke.cont15
  %m_pHandles = getelementptr inbounds i8, ptr %this, i64 24
  store ptr %call9, ptr %m_pHandles, align 8
  %m_maxHandles = getelementptr inbounds i8, ptr %this, i64 12
  store i32 %maxProxies, ptr %m_maxHandles, align 4
  %m_numHandles = getelementptr inbounds i8, ptr %this, i64 8
  store i32 0, ptr %m_numHandles, align 8
  %m_firstFreeHandle = getelementptr inbounds i8, ptr %this, i64 40
  store i32 0, ptr %m_firstFreeHandle, align 8
  %m_LastHandleIndex = getelementptr inbounds i8, ptr %this, i64 16
  store i32 -1, ptr %m_LastHandleIndex, align 8
  %cmp13 = icmp sgt i32 %maxProxies, 0
  br i1 %cmp13, label %for.body.preheader, label %for.end

for.body.preheader:                               ; preds = %arrayctor.cont
  %wide.trip.count = zext nneg i32 %maxProxies to i64
  br label %for.body

for.body:                                         ; preds = %for.body.preheader, %for.body
  %indvars.iv = phi i64 [ 0, %for.body.preheader ], [ %indvars.iv.next, %for.body ]
  %0 = load ptr, ptr %m_pHandles, align 8
  %indvars.iv.next = add nuw nsw i64 %indvars.iv, 1
  %m_nextFree.i = getelementptr inbounds %struct.btSimpleBroadphaseProxy, ptr %0, i64 %indvars.iv, i32 1
  %1 = trunc i64 %indvars.iv.next to i32
  store i32 %1, ptr %m_nextFree.i, align 4
  %2 = load ptr, ptr %m_pHandles, align 8
  %m_uniqueId = getelementptr inbounds %struct.btSimpleBroadphaseProxy, ptr %2, i64 %indvars.iv, i32 0, i32 3
  %3 = trunc i64 %indvars.iv to i32
  %4 = add i32 %3, 2
  store i32 %4, ptr %m_uniqueId, align 8
  %exitcond.not = icmp eq i64 %indvars.iv.next, %wide.trip.count
  br i1 %exitcond.not, label %for.end.loopexit, label %for.body, !llvm.loop !5

for.end.loopexit:                                 ; preds = %for.body
  %.pre = load ptr, ptr %m_pHandles, align 8
  br label %for.end

for.end:                                          ; preds = %arrayctor.cont.thread, %for.end.loopexit, %arrayctor.cont
  %5 = phi ptr [ %.pre, %for.end.loopexit ], [ %call9, %arrayctor.cont ], [ %call9, %arrayctor.cont.thread ]
  %6 = getelementptr %struct.btSimpleBroadphaseProxy, ptr %5, i64 %conv
  %m_nextFree.i12 = getelementptr i8, ptr %6, i64 -4
  store i32 0, ptr %m_nextFree.i12, align 4
  ret void
}